CCS PCM C Compiler, Version 4.068, 33167               03-out-14 13:44

               Filename: main.lst

               ROM used: 88 words (1%)
                         Largest free fragment is 2048
               RAM used: 7 (2%) at main() level
                         7 (2%) worst case
               Stack:    0 locations

*
0000:  MOVLW  00
0001:  MOVWF  0A
0002:  GOTO   004
0003:  NOP
.................... #include <16F877A.h> 
.................... //////// Standard Header file for the PIC16F877A device //////////////// 
.................... #device PIC16F877A 
.................... #list 
....................  
.................... #device adc=8 
....................  
.................... #FUSES NOWDT                    //No Watch Dog Timer 
.................... #FUSES XT                       //High speed Osc (> 4mhz) 
.................... #FUSES NOPUT                    //No Power Up Timer 
.................... #FUSES NOPROTECT                //Code not protected from reading 
.................... #FUSES NODEBUG                  //No Debug mode for ICD 
.................... #FUSES NOBROWNOUT               //No brownout reset 
.................... #FUSES NOLVP                    //No low voltage prgming, B3(PIC16) or B5(PIC18) used for I/O 
.................... #FUSES NOCPD                    //No EE protection 
.................... #FUSES WRT_50%                  //Lower half of Program Memory is Write Protected 
....................  
.................... #use delay(clock=4000000) 
....................  
....................  
.................... void main() 
.................... { 
*
0004:  CLRF   04
0005:  BCF    03.7
0006:  MOVLW  1F
0007:  ANDWF  03,F
0008:  BSF    03.5
0009:  BSF    1F.0
000A:  BSF    1F.1
000B:  BSF    1F.2
000C:  BCF    1F.3
000D:  MOVLW  07
000E:  MOVWF  1C
....................  
....................    setup_adc_ports(NO_ANALOGS); 
*
0012:  BSF    03.5
0013:  BSF    1F.0
0014:  BSF    1F.1
0015:  BSF    1F.2
0016:  BCF    1F.3
....................    setup_adc(ADC_OFF); 
0017:  BCF    03.5
0018:  BCF    1F.0
....................    setup_psp(PSP_DISABLED); 
0019:  BSF    03.5
001A:  BCF    09.4
....................    setup_spi(SPI_SS_DISABLED); 
001B:  BCF    03.5
001C:  BCF    14.5
001D:  BCF    20.5
001E:  MOVF   20,W
001F:  BSF    03.5
0020:  MOVWF  07
0021:  BCF    03.5
0022:  BSF    20.4
0023:  MOVF   20,W
0024:  BSF    03.5
0025:  MOVWF  07
0026:  BCF    03.5
0027:  BCF    20.3
0028:  MOVF   20,W
0029:  BSF    03.5
002A:  MOVWF  07
002B:  MOVLW  01
002C:  BCF    03.5
002D:  MOVWF  14
002E:  MOVLW  00
002F:  BSF    03.5
0030:  MOVWF  14
....................    setup_timer_0(RTCC_INTERNAL|RTCC_DIV_1); 
0031:  MOVF   01,W
0032:  ANDLW  C7
0033:  IORLW  08
0034:  MOVWF  01
....................    setup_timer_1(T1_DISABLED); 
0035:  BCF    03.5
0036:  CLRF   10
....................    setup_timer_2(T2_DIV_BY_1,0xFF,1); 
0037:  MOVLW  00
0038:  MOVWF  78
0039:  IORLW  04
003A:  MOVWF  12
003B:  MOVLW  FF
003C:  BSF    03.5
003D:  MOVWF  12
....................    setup_ccp1(CCP_PWM); 
003E:  BCF    03.5
003F:  BCF    20.2
0040:  MOVF   20,W
0041:  BSF    03.5
0042:  MOVWF  07
0043:  BCF    03.5
0044:  BCF    07.2
0045:  MOVLW  0C
0046:  MOVWF  17
....................    set_pwm1_duty(100);//400); 
0047:  MOVLW  64
0048:  MOVWF  15
....................    setup_comparator(NC_NC_NC_NC); 
0049:  MOVLW  07
004A:  BSF    03.5
004B:  MOVWF  1C
004C:  MOVF   05,W
004D:  MOVLW  03
004E:  MOVWF  77
004F:  DECFSZ 77,F
0050:  GOTO   04F
0051:  MOVF   1C,W
0052:  BCF    03.5
0053:  BCF    0D.6
....................    setup_vref(FALSE); 
0054:  BSF    03.5
0055:  CLRF   1D
....................  
....................    // TODO: USER CODE!! 
.................... 	while(TRUE){ 
.................... 	 
.................... } 
0056:  GOTO   056
.................... } 
0057:  SLEEP

Configuration Fuses:
   Word  1: 3939   XT NOWDT NOPUT NODEBUG NOPROTECT NOBROWNOUT NOLVP NOCPD WRT_50%
